target datalayout = "e-m:e-p270:32:32-p271:32:32-p272:64:64-i64:64-i128:128-f80:128-n8:16:32:64-S128"
target triple = "x86_64-pc-linux-gnu"

%"class.cvc5::internal::FloatingPointSize" = type { i32, i32 }

@_ZN4cvc58internal17FloatingPointSizeC1Ejj = hidden unnamed_addr alias void (ptr, i32, i32), ptr @_ZN4cvc58internal17FloatingPointSizeC2Ejj
@_ZN4cvc58internal17FloatingPointSizeC1ERKS1_ = hidden unnamed_addr alias void (ptr, ptr), ptr @_ZN4cvc58internal17FloatingPointSizeC2ERKS1_

; Function Attrs: mustprogress nounwind uwtable
define hidden void @_ZN4cvc58internal17FloatingPointSizeC2Ejj(ptr noundef nonnull align 4 dereferenceable(8) %0, i32 noundef %1, i32 noundef %2) unnamed_addr #0 align 2 {
  %4 = alloca ptr, align 8
  %5 = alloca i32, align 4
  %6 = alloca i32, align 4
  store ptr %0, ptr %4, align 8, !tbaa !3
  store i32 %1, ptr %5, align 4, !tbaa !8
  store i32 %2, ptr %6, align 4, !tbaa !8
  %7 = load ptr, ptr %4, align 8
  %8 = getelementptr inbounds nuw %"class.cvc5::internal::FloatingPointSize", ptr %7, i32 0, i32 0
  %9 = load i32, ptr %5, align 4, !tbaa !8
  store i32 %9, ptr %8, align 4, !tbaa !10
  %10 = getelementptr inbounds nuw %"class.cvc5::internal::FloatingPointSize", ptr %7, i32 0, i32 1
  %11 = load i32, ptr %6, align 4, !tbaa !8
  store i32 %11, ptr %10, align 4, !tbaa !12
  ret void
}

; Function Attrs: mustprogress nounwind uwtable
define hidden void @_ZN4cvc58internal17FloatingPointSizeC2ERKS1_(ptr noundef nonnull align 4 dereferenceable(8) %0, ptr noundef nonnull align 4 dereferenceable(8) %1) unnamed_addr #0 align 2 {
  %3 = alloca ptr, align 8
  %4 = alloca ptr, align 8
  store ptr %0, ptr %3, align 8, !tbaa !3
  store ptr %1, ptr %4, align 8, !tbaa !3
  %5 = load ptr, ptr %3, align 8
  %6 = getelementptr inbounds nuw %"class.cvc5::internal::FloatingPointSize", ptr %5, i32 0, i32 0
  %7 = load ptr, ptr %4, align 8, !tbaa !3
  %8 = getelementptr inbounds nuw %"class.cvc5::internal::FloatingPointSize", ptr %7, i32 0, i32 0
  %9 = load i32, ptr %8, align 4, !tbaa !10
  store i32 %9, ptr %6, align 4, !tbaa !10
  %10 = getelementptr inbounds nuw %"class.cvc5::internal::FloatingPointSize", ptr %5, i32 0, i32 1
  %11 = load ptr, ptr %4, align 8, !tbaa !3
  %12 = getelementptr inbounds nuw %"class.cvc5::internal::FloatingPointSize", ptr %11, i32 0, i32 1
  %13 = load i32, ptr %12, align 4, !tbaa !12
  store i32 %13, ptr %10, align 4, !tbaa !12
  ret void
}


!llvm.module.flags = !{!0, !1, !2}

!0 = !{i32 1, !"wchar_size", i32 4}
!1 = !{i32 8, !"PIC Level", i32 2}
!2 = !{i32 7, !"uwtable", i32 2}
!3 = !{!4, !4, i64 0}
!4 = !{!"p1 _ZTSN4cvc58internal17FloatingPointSizeE", !5, i64 0}
!5 = !{!"any pointer", !6, i64 0}
!6 = !{!"omnipotent char", !7, i64 0}
!7 = !{!"Simple C++ TBAA"}
!8 = !{!9, !9, i64 0}
!9 = !{!"int", !6, i64 0}
!10 = !{!11, !9, i64 0}
!11 = !{!"_ZTSN4cvc58internal17FloatingPointSizeE", !9, i64 0, !9, i64 4}
!12 = !{!11, !9, i64 4}
