; ModuleID = 'bench/cvc5/original/floatingpoint_size.ll'
source_filename = "bench/cvc5/original/floatingpoint_size.ll"
target datalayout = "e-m:e-p270:32:32-p271:32:32-p272:64:64-i64:64-i128:128-f80:128-n8:16:32:64-S128"
target triple = "x86_64-pc-linux-gnu"

@_ZN4cvc58internal17FloatingPointSizeC1Ejj = hidden unnamed_addr alias void (ptr, i32, i32), ptr @_ZN4cvc58internal17FloatingPointSizeC2Ejj
@_ZN4cvc58internal17FloatingPointSizeC1ERKS1_ = hidden unnamed_addr alias void (ptr, ptr), ptr @_ZN4cvc58internal17FloatingPointSizeC2ERKS1_

; Function Attrs: mustprogress nofree norecurse nosync nounwind willreturn memory(argmem: write) uwtable
define hidden void @_ZN4cvc58internal17FloatingPointSizeC2Ejj(ptr noundef nonnull writeonly align 4 captures(none) dereferenceable(8) initializes((0, 8)) %0, i32 noundef %1, i32 noundef %2) unnamed_addr #0 align 2 {
  store i32 %1, ptr %0, align 4, !tbaa !3
  %4 = getelementptr inbounds nuw i8, ptr %0, i64 4
  store i32 %2, ptr %4, align 4, !tbaa !8
  ret void
}

; Function Attrs: mustprogress nofree norecurse nosync nounwind willreturn memory(argmem: readwrite) uwtable
define hidden void @_ZN4cvc58internal17FloatingPointSizeC2ERKS1_(ptr noundef nonnull writeonly align 4 captures(none) dereferenceable(8) initializes((0, 8)) %0, ptr noundef nonnull readonly align 4 captures(none) dereferenceable(8) %1) unnamed_addr #1 align 2 {
  %3 = load i32, ptr %1, align 4, !tbaa !3
  store i32 %3, ptr %0, align 4, !tbaa !3
  %4 = getelementptr inbounds nuw i8, ptr %0, i64 4
  %5 = getelementptr inbounds nuw i8, ptr %1, i64 4
  %6 = load i32, ptr %5, align 4, !tbaa !8
  store i32 %6, ptr %4, align 4, !tbaa !8
  ret void
}


!llvm.module.flags = !{!0, !1, !2}

!0 = !{i32 1, !"wchar_size", i32 4}
!1 = !{i32 8, !"PIC Level", i32 2}
!2 = !{i32 7, !"uwtable", i32 2}
!3 = !{!4, !5, i64 0}
!4 = !{!"_ZTSN4cvc58internal17FloatingPointSizeE", !5, i64 0, !5, i64 4}
!5 = !{!"int", !6, i64 0}
!6 = !{!"omnipotent char", !7, i64 0}
!7 = !{!"Simple C++ TBAA"}
!8 = !{!4, !5, i64 4}
